; Function Attrs: nounwind sspstrong uwtable
define internal i64 @ossl_x509stctx_get_err_string(i64 noundef %0) #0 {
  %2 = tail call ptr @rb_check_typeddata(i64 noundef %0, ptr noundef nonnull @ossl_x509stctx_type) #5
  %.not = icmp eq ptr %2, null
  br i1 %.not, label %3, label %5

3:                                                ; preds = %1
  %4 = load i64, ptr @rb_eRuntimeError, align 8, !tbaa !20
  tail call void (i64, ptr, ...) @ossl_raise(i64 noundef %4, ptr noundef nonnull @.str.52) #7
  unreachable

5:                                                ; preds = %1
  %6 = tail call i32 @X509_STORE_CTX_get_error(ptr noundef nonnull %2) #5
  %7 = sext i32 %6 to i64
  %8 = tail call ptr @X509_verify_cert_error_string(i64 noundef %7) #5
  %9 = tail call i64 @rb_str_new_cstr(ptr noundef %8) #5
  ret i64 %9
}